; Function Attrs: mustprogress uwtable
define dso_local void @_ZNK23FunctionInvocationUnary15indented_outputERSoi(ptr nocapture noundef nonnull readonly align 8 dereferenceable(96) %0, ptr noundef nonnull align 8 dereferenceable(8) %1, i32 noundef %2) unnamed_addr #3 align 2 personality ptr @__gxx_personality_v0 {
  %4 = alloca i32, align 4
  %5 = alloca %"class.std::__cxx11::basic_string", align 8
  store i32 %2, ptr %4, align 4
  %6 = tail call noundef nonnull align 8 dereferenceable(8) ptr @_ZStlsISt11char_traitsIcEERSt13basic_ostreamIcT_ES5_PKc(ptr noundef nonnull align 8 dereferenceable(8) %1, ptr noundef nonnull @.str.1)
  %7 = getelementptr inbounds i8, ptr %0, i64 56
  %8 = load i32, ptr %7, align 8
  switch i32 %8, label %37 [
    i32 1, label %9
    i32 0, label %26
    i32 2, label %26
    i32 3, label %26
  ]

9:                                                ; preds = %3
  %10 = tail call noundef zeroext i1 @_ZN9CGOptions21avoid_signed_overflowEv()
  br i1 %10, label %11, label %thread-pre-split

11:                                               ; preds = %9
  %12 = getelementptr inbounds i8, ptr %0, i64 48
  %13 = load ptr, ptr %12, align 8
  %14 = load i32, ptr %7, align 8
  call void @_ZNK11SafeOpFlags9to_stringB5cxx11E9eUnaryOps(ptr dead_on_unwind nonnull writable sret(%"class.std::__cxx11::basic_string") align 8 %5, ptr noundef nonnull align 4 dereferenceable(8) %13, i32 noundef %14)
  %15 = invoke noundef nonnull align 8 dereferenceable(8) ptr @_ZStlsIcSt11char_traitsIcESaIcEERSt13basic_ostreamIT_T0_ES7_RKNSt7__cxx1112basic_stringIS4_S5_T1_EE(ptr noundef nonnull align 8 dereferenceable(8) %1, ptr noundef nonnull align 8 dereferenceable(32) %5)
          to label %16 unwind label %24

16:                                               ; preds = %11
  call void @_ZNSt7__cxx1112basic_stringIcSt11char_traitsIcESaIcEED1Ev(ptr noundef nonnull align 8 dereferenceable(32) %5) #11
  call void @_Z20output_open_encloserPKcRSoRi(ptr noundef nonnull @.str.1, ptr noundef nonnull align 8 dereferenceable(8) %1, ptr noundef nonnull align 4 dereferenceable(4) %4)
  %17 = getelementptr inbounds i8, ptr %0, i64 16
  %18 = load ptr, ptr %17, align 8
  %19 = load ptr, ptr %18, align 8
  %20 = load i32, ptr %4, align 4
  %21 = load ptr, ptr %19, align 8
  %22 = getelementptr inbounds i8, ptr %21, i64 152
  %23 = load ptr, ptr %22, align 8
  call void %23(ptr noundef nonnull align 8 dereferenceable(24) %19, ptr noundef nonnull align 8 dereferenceable(8) %1, i32 noundef %20)
  call void @_Z21output_close_encloserPKcRSoRib(ptr noundef nonnull @.str.3, ptr noundef nonnull align 8 dereferenceable(8) %1, ptr noundef nonnull align 4 dereferenceable(4) %4, i1 noundef zeroext false)
  br label %37

24:                                               ; preds = %11
  %25 = landingpad { ptr, i32 }
          cleanup
  call void @_ZNSt7__cxx1112basic_stringIcSt11char_traitsIcESaIcEED1Ev(ptr noundef nonnull align 8 dereferenceable(32) %5) #11
  resume { ptr, i32 } %25

thread-pre-split:                                 ; preds = %9
  %.pr = load i32, ptr %7, align 8
  br label %26

26:                                               ; preds = %thread-pre-split, %3, %3, %3
  %27 = phi i32 [ %.pr, %thread-pre-split ], [ %8, %3 ], [ %8, %3 ], [ %8, %3 ]
  %28 = icmp ult i32 %27, 4
  br i1 %28, label %switch.lookup, label %_ZL22OutputStandardFuncName9eUnaryOpsRSo.exit

switch.lookup:                                    ; preds = %26
  %29 = zext nneg i32 %27 to i64
  %switch.gep = getelementptr inbounds [4 x ptr], ptr @switch.table._ZNK23FunctionInvocationUnary15indented_outputERSoi, i64 0, i64 %29
  %switch.load = load ptr, ptr %switch.gep, align 8
  %30 = tail call noundef nonnull align 8 dereferenceable(8) ptr @_ZStlsISt11char_traitsIcEERSt13basic_ostreamIcT_ES5_PKc(ptr noundef nonnull align 8 dereferenceable(8) %1, ptr noundef nonnull %switch.load)
  br label %_ZL22OutputStandardFuncName9eUnaryOpsRSo.exit

_ZL22OutputStandardFuncName9eUnaryOpsRSo.exit:    ; preds = %26, %switch.lookup
  %31 = getelementptr inbounds i8, ptr %0, i64 16
  %32 = load ptr, ptr %31, align 8
  %33 = load ptr, ptr %32, align 8
  %34 = load ptr, ptr %33, align 8
  %35 = getelementptr inbounds i8, ptr %34, i64 152
  %36 = load ptr, ptr %35, align 8
  tail call void %36(ptr noundef nonnull align 8 dereferenceable(24) %33, ptr noundef nonnull align 8 dereferenceable(8) %1, i32 noundef %2)
  br label %37

37:                                               ; preds = %3, %_ZL22OutputStandardFuncName9eUnaryOpsRSo.exit, %16
  %38 = call noundef nonnull align 8 dereferenceable(8) ptr @_ZStlsISt11char_traitsIcEERSt13basic_ostreamIcT_ES5_PKc(ptr noundef nonnull align 8 dereferenceable(8) %1, ptr noundef nonnull @.str.3)
  ret void
}